; Function Attrs: mustprogress uwtable
define hidden noundef zeroext i1 @_ZN2cv3dnn14dnn4_v2024122338getParam_DNN_CHECK_NAN_INF_RAISE_ERROREv() local_unnamed_addr #3 personality ptr @__gxx_personality_v0 {
  %1 = load atomic i8, ptr @_ZGVZN2cv3dnn14dnn4_v2024122338getParam_DNN_CHECK_NAN_INF_RAISE_ERROREvE29DNN_CHECK_NAN_INF_RAISE_ERROR acquire, align 8
  %2 = icmp eq i8 %1, 0
  br i1 %2, label %3, label %9, !prof !3

3:                                                ; preds = %0
  %4 = tail call i32 @__cxa_guard_acquire(ptr nonnull @_ZGVZN2cv3dnn14dnn4_v2024122338getParam_DNN_CHECK_NAN_INF_RAISE_ERROREvE29DNN_CHECK_NAN_INF_RAISE_ERROR) #5
  %.not = icmp eq i32 %4, 0
  br i1 %.not, label %9, label %5

5:                                                ; preds = %3
  %6 = invoke noundef zeroext i1 @_ZN2cv5utils29getConfigurationParameterBoolEPKcb(ptr noundef nonnull @.str.5, i1 noundef zeroext false)
          to label %7 unwind label %12

7:                                                ; preds = %5
  %8 = zext i1 %6 to i8
  store i8 %8, ptr @_ZZN2cv3dnn14dnn4_v2024122338getParam_DNN_CHECK_NAN_INF_RAISE_ERROREvE29DNN_CHECK_NAN_INF_RAISE_ERROR, align 1, !tbaa !8
  tail call void @__cxa_guard_release(ptr nonnull @_ZGVZN2cv3dnn14dnn4_v2024122338getParam_DNN_CHECK_NAN_INF_RAISE_ERROREvE29DNN_CHECK_NAN_INF_RAISE_ERROR) #5
  br label %9

9:                                                ; preds = %7, %3, %0
  %10 = load i8, ptr @_ZZN2cv3dnn14dnn4_v2024122338getParam_DNN_CHECK_NAN_INF_RAISE_ERROREvE29DNN_CHECK_NAN_INF_RAISE_ERROR, align 1, !tbaa !8, !range !10, !noundef !11
  %11 = trunc nuw i8 %10 to i1
  ret i1 %11

12:                                               ; preds = %5
  %13 = landingpad { ptr, i32 }
          cleanup
  tail call void @__cxa_guard_abort(ptr nonnull @_ZGVZN2cv3dnn14dnn4_v2024122338getParam_DNN_CHECK_NAN_INF_RAISE_ERROREvE29DNN_CHECK_NAN_INF_RAISE_ERROR) #5
  resume { ptr, i32 } %13
}